; ModuleID = '7/696.c'
source_filename = "7/696.c"
target datalayout = "e-m:e-p270:32:32-p271:32:32-p272:64:64-i64:64-f80:128-n8:16:32:64-S128"
target triple = "x86_64-pc-linux-gnu"

@s = common dso_local global [100 x i8] zeroinitializer, align 16
@.str = private unnamed_addr constant [3 x i8] c"%s\00", align 1
@a = common dso_local global [100 x i8] zeroinitializer, align 16
@b = common dso_local global [100 x i8] zeroinitializer, align 16
@c = common dso_local global [100 x i8] zeroinitializer, align 16
@d = common dso_local global [100 x i8] zeroinitializer, align 16
@.str.1 = private unnamed_addr constant [4 x i8] c"%s\0A\00", align 1

; Function Attrs: noinline nounwind uwtable
define dso_local i32 @main() #0 {
  %1 = alloca i32, align 4
  %2 = alloca i32, align 4
  %3 = alloca i32, align 4
  %4 = alloca i32, align 4
  %5 = alloca i32, align 4
  %6 = alloca i32, align 4
  store i32 0, i32* %1, align 4
  %7 = call i32 (i8*, ...) bitcast (i32 (...)* @gets to i32 (i8*, ...)*)(i8* getelementptr inbounds ([100 x i8], [100 x i8]* @s, i64 0, i64 0))
  %8 = call i32 (i8*, ...) @__isoc99_scanf(i8* getelementptr inbounds ([3 x i8], [3 x i8]* @.str, i64 0, i64 0), i8* getelementptr inbounds ([100 x i8], [100 x i8]* @a, i64 0, i64 0))
  %9 = call i32 (i8*, ...) @__isoc99_scanf(i8* getelementptr inbounds ([3 x i8], [3 x i8]* @.str, i64 0, i64 0), i8* getelementptr inbounds ([100 x i8], [100 x i8]* @b, i64 0, i64 0))
  store i32 0, i32* %4, align 4
  store i32 0, i32* %5, align 4
  br label %10

10:                                               ; preds = %46, %0
  %11 = load i32, i32* %5, align 4
  %12 = sext i32 %11 to i64
  %13 = getelementptr inbounds [100 x i8], [100 x i8]* @s, i64 0, i64 %12
  %14 = load i8, i8* %13, align 1
  %15 = sext i8 %14 to i32
  %16 = icmp ne i32 %15, 0
  br i1 %16, label %17, label %49

17:                                               ; preds = %10
  store i32 0, i32* %2, align 4
  %18 = load i32, i32* %5, align 4
  store i32 %18, i32* %3, align 4
  br label %19

19:                                               ; preds = %38, %17
  %20 = load i32, i32* %3, align 4
  %21 = load i32, i32* %5, align 4
  %22 = sub nsw i32 %20, %21
  %23 = sext i32 %22 to i64
  %24 = getelementptr inbounds [100 x i8], [100 x i8]* @a, i64 0, i64 %23
  %25 = load i8, i8* %24, align 1
  %26 = sext i8 %25 to i32
  %27 = icmp ne i32 %26, 0
  br i1 %27, label %28, label %41

28:                                               ; preds = %19
  %29 = load i32, i32* %3, align 4
  %30 = sext i32 %29 to i64
  %31 = getelementptr inbounds [100 x i8], [100 x i8]* @s, i64 0, i64 %30
  %32 = load i8, i8* %31, align 1
  %33 = load i32, i32* %2, align 4
  %34 = sext i32 %33 to i64
  %35 = getelementptr inbounds [100 x i8], [100 x i8]* @c, i64 0, i64 %34
  store i8 %32, i8* %35, align 1
  %36 = load i32, i32* %2, align 4
  %37 = add nsw i32 %36, 1
  store i32 %37, i32* %2, align 4
  br label %38

38:                                               ; preds = %28
  %39 = load i32, i32* %3, align 4
  %40 = add nsw i32 %39, 1
  store i32 %40, i32* %3, align 4
  br label %19

41:                                               ; preds = %19
  %42 = call i32 @strcmp(i8* getelementptr inbounds ([100 x i8], [100 x i8]* @a, i64 0, i64 0), i8* getelementptr inbounds ([100 x i8], [100 x i8]* @c, i64 0, i64 0)) #4
  %43 = icmp eq i32 %42, 0
  br i1 %43, label %44, label %45

44:                                               ; preds = %41
  store i32 1, i32* %4, align 4
  br label %49

45:                                               ; preds = %41
  br label %46

46:                                               ; preds = %45
  %47 = load i32, i32* %5, align 4
  %48 = add nsw i32 %47, 1
  store i32 %48, i32* %5, align 4
  br label %10

49:                                               ; preds = %44, %10
  %50 = load i32, i32* %4, align 4
  %51 = icmp eq i32 %50, 0
  br i1 %51, label %52, label %54

52:                                               ; preds = %49
  %53 = call i32 (i8*, ...) @printf(i8* getelementptr inbounds ([3 x i8], [3 x i8]* @.str, i64 0, i64 0), i8* getelementptr inbounds ([100 x i8], [100 x i8]* @s, i64 0, i64 0))
  br label %101

54:                                               ; preds = %49
  store i32 0, i32* %6, align 4
  br label %55

55:                                               ; preds = %67, %54
  %56 = load i32, i32* %6, align 4
  %57 = load i32, i32* %5, align 4
  %58 = icmp slt i32 %56, %57
  br i1 %58, label %59, label %70

59:                                               ; preds = %55
  %60 = load i32, i32* %6, align 4
  %61 = sext i32 %60 to i64
  %62 = getelementptr inbounds [100 x i8], [100 x i8]* @s, i64 0, i64 %61
  %63 = load i8, i8* %62, align 1
  %64 = load i32, i32* %6, align 4
  %65 = sext i32 %64 to i64
  %66 = getelementptr inbounds [100 x i8], [100 x i8]* @d, i64 0, i64 %65
  store i8 %63, i8* %66, align 1
  br label %67

67:                                               ; preds = %59
  %68 = load i32, i32* %6, align 4
  %69 = add nsw i32 %68, 1
  store i32 %69, i32* %6, align 4
  br label %55

70:                                               ; preds = %55
  %71 = call i8* @strcat(i8* getelementptr inbounds ([100 x i8], [100 x i8]* @d, i64 0, i64 0), i8* getelementptr inbounds ([100 x i8], [100 x i8]* @b, i64 0, i64 0)) #5
  %72 = load i32, i32* %5, align 4
  %73 = sext i32 %72 to i64
  %74 = call i64 @strlen(i8* getelementptr inbounds ([100 x i8], [100 x i8]* @a, i64 0, i64 0)) #4
  %75 = add i64 %73, %74
  %76 = trunc i64 %75 to i32
  store i32 %76, i32* %6, align 4
  br label %77

77:                                               ; preds = %96, %70
  %78 = load i32, i32* %6, align 4
  %79 = sext i32 %78 to i64
  %80 = getelementptr inbounds [100 x i8], [100 x i8]* @s, i64 0, i64 %79
  %81 = load i8, i8* %80, align 1
  %82 = sext i8 %81 to i32
  %83 = icmp ne i32 %82, 0
  br i1 %83, label %84, label %99

84:                                               ; preds = %77
  %85 = load i32, i32* %6, align 4
  %86 = sext i32 %85 to i64
  %87 = getelementptr inbounds [100 x i8], [100 x i8]* @s, i64 0, i64 %86
  %88 = load i8, i8* %87, align 1
  %89 = load i32, i32* %6, align 4
  %90 = sext i32 %89 to i64
  %91 = call i64 @strlen(i8* getelementptr inbounds ([100 x i8], [100 x i8]* @a, i64 0, i64 0)) #4
  %92 = sub i64 %90, %91
  %93 = call i64 @strlen(i8* getelementptr inbounds ([100 x i8], [100 x i8]* @b, i64 0, i64 0)) #4
  %94 = add i64 %92, %93
  %95 = getelementptr inbounds [100 x i8], [100 x i8]* @d, i64 0, i64 %94
  store i8 %88, i8* %95, align 1
  br label %96

96:                                               ; preds = %84
  %97 = load i32, i32* %6, align 4
  %98 = add nsw i32 %97, 1
  store i32 %98, i32* %6, align 4
  br label %77

99:                                               ; preds = %77
  %100 = call i32 (i8*, ...) @printf(i8* getelementptr inbounds ([4 x i8], [4 x i8]* @.str.1, i64 0, i64 0), i8* getelementptr inbounds ([100 x i8], [100 x i8]* @d, i64 0, i64 0))
  br label %101

101:                                              ; preds = %99, %52
  ret i32 0
}

declare dso_local i32 @gets(...) #1

declare dso_local i32 @__isoc99_scanf(i8*, ...) #1

; Function Attrs: nounwind readonly
declare dso_local i32 @strcmp(i8*, i8*) #2

declare dso_local i32 @printf(i8*, ...) #1

; Function Attrs: nounwind
declare dso_local i8* @strcat(i8*, i8*) #3

; Function Attrs: nounwind readonly
declare dso_local i64 @strlen(i8*) #2


!llvm.module.flags = !{!0}
!llvm.ident = !{!1}

!0 = !{i32 1, !"wchar_size", i32 4}
!1 = !{!"clang version 10.0.0-4ubuntu1 "}
